target datalayout = "e-m:e-p270:32:32-p271:32:32-p272:64:64-i64:64-i128:128-f80:128-n8:16:32:64-S128"
target triple = "x86_64-pc-linux-gnu"

%struct.LimExNFA256 = type { [256 x i8], i32, i32, i32, i32, i32, i32, i32, i32, i32, i32, i32, i32, i32, i32, i32, i32, i32, i32, i32, <4 x i64>, <4 x i64>, <4 x i64>, <4 x i64>, <4 x i64>, <4 x i64>, <4 x i64>, <4 x i64>, <4 x i64>, <4 x i64>, <4 x i64>, <4 x i64>, [8 x <4 x i64>], i32, [8 x i8], %struct.m512, %struct.m512, %struct.m512 }
%struct.m512 = type { <4 x i64>, <4 x i64> }
%struct.NFARepeatInfo = type { i32, i32, i32, i32, i32, i32 }
%struct.RepeatInfo = type { i8, i32, i32, i32, i32, i32, i32, [2 x i32], i32, i32, i32, i32, i32 }

; Function Attrs: alwaysinline nounwind uwtable
define internal <4 x i64> @_mm256_and_si256(<4 x i64> noundef %0, <4 x i64> noundef %1) #3 {
  %3 = alloca <4 x i64>, align 32
  %4 = alloca <4 x i64>, align 32
  store <4 x i64> %0, ptr %3, align 32
  store <4 x i64> %1, ptr %4, align 32
  %5 = load <4 x i64>, ptr %3, align 32
  %6 = load <4 x i64>, ptr %4, align 32
  %7 = and <4 x i64> %5, %6
  ret <4 x i64> %7
}

; Function Attrs: alwaysinline nounwind uwtable
define internal ptr @get_reach_table(ptr noundef %0) #2 {
  %2 = alloca ptr, align 8
  %3 = alloca ptr, align 8
  store ptr %0, ptr %2, align 8
  call void @llvm.lifetime.start.p0(i64 8, ptr %3) #14
  %4 = load ptr, ptr %2, align 8
  %5 = getelementptr inbounds nuw i8, ptr %4, i64 1216
  store ptr %5, ptr %3, align 8
  %6 = load ptr, ptr %3, align 8
  call void @llvm.lifetime.end.p0(i64 8, ptr %3) #14
  ret ptr %6
}

; Function Attrs: alwaysinline nounwind uwtable
define internal i32 @_mm256_movemask_epi8(<4 x i64> noundef %0) #3 {
  %2 = alloca <4 x i64>, align 32
  store <4 x i64> %0, ptr %2, align 32
  %3 = load <4 x i64>, ptr %2, align 32
  %4 = bitcast <4 x i64> %3 to <32 x i8>
  %5 = call i32 @llvm.x86.avx2.pmovmskb(<32 x i8> %4)
  ret i32 %5
}

; Function Attrs: alwaysinline nounwind uwtable
define internal <4 x i64> @_mm256_cmpeq_epi8(<4 x i64> noundef %0, <4 x i64> noundef %1) #3 {
  %3 = alloca <4 x i64>, align 32
  %4 = alloca <4 x i64>, align 32
  store <4 x i64> %0, ptr %3, align 32
  store <4 x i64> %1, ptr %4, align 32
  %5 = load <4 x i64>, ptr %3, align 32
  %6 = bitcast <4 x i64> %5 to <32 x i8>
  %7 = load <4 x i64>, ptr %4, align 32
  %8 = bitcast <4 x i64> %7 to <32 x i8>
  %9 = icmp eq <32 x i8> %6, %8
  %10 = sext <32 x i1> %9 to <32 x i8>
  %11 = bitcast <32 x i8> %10 to <4 x i64>
  ret <4 x i64> %11
}

; Function Attrs: alwaysinline nounwind uwtable
define internal <4 x i64> @_mm256_setzero_si256() #3 {
  %1 = alloca <4 x i64>, align 32
  store <4 x i64> zeroinitializer, ptr %1, align 32
  %2 = load <4 x i64>, ptr %1, align 32
  ret <4 x i64> %2
}

; Function Attrs: alwaysinline nounwind uwtable
define internal <4 x i64> @_mm256_load_si256(ptr noundef %0) #3 {
  %2 = alloca ptr, align 8
  store ptr %0, ptr %2, align 8
  %3 = load ptr, ptr %2, align 8
  %4 = load <4 x i64>, ptr %3, align 32
  ret <4 x i64> %4
}

; Function Attrs: alwaysinline nounwind uwtable
define internal <4 x i64> @and256(<4 x i64> noundef %0, <4 x i64> noundef %1) #3 {
  %3 = alloca <4 x i64>, align 32
  %4 = alloca <4 x i64>, align 32
  store <4 x i64> %0, ptr %3, align 32
  store <4 x i64> %1, ptr %4, align 32
  %5 = load <4 x i64>, ptr %3, align 32
  %6 = load <4 x i64>, ptr %4, align 32
  %7 = call <4 x i64> @_mm256_and_si256(<4 x i64> noundef %5, <4 x i64> noundef %6)
  ret <4 x i64> %7
}

; Function Attrs: alwaysinline nounwind uwtable
define internal <4 x i64> @moNfaReachMask256(ptr noundef %0, i8 noundef zeroext %1) #3 {
  %3 = alloca ptr, align 8
  %4 = alloca i8, align 1
  %5 = alloca ptr, align 8
  store ptr %0, ptr %3, align 8
  store i8 %1, ptr %4, align 1
  call void @llvm.lifetime.start.p0(i64 8, ptr %5) #14
  %6 = load ptr, ptr %3, align 8
  %7 = call ptr @get_reach_table(ptr noundef %6)
  store ptr %7, ptr %5, align 8
  %8 = load ptr, ptr %5, align 8
  %9 = load ptr, ptr %3, align 8
  %10 = getelementptr inbounds nuw %struct.LimExNFA256, ptr %9, i32 0, i32 0
  %11 = load i8, ptr %4, align 1
  %12 = zext i8 %11 to i64
  %13 = getelementptr inbounds nuw [256 x i8], ptr %10, i64 0, i64 %12
  %14 = load i8, ptr %13, align 1
  %15 = zext i8 %14 to i64
  %16 = getelementptr inbounds nuw <4 x i64>, ptr %8, i64 %15
  %17 = call <4 x i64> @load256(ptr noundef %16)
  call void @llvm.lifetime.end.p0(i64 8, ptr %5) #14
  ret <4 x i64> %17
}

; Function Attrs: alwaysinline nounwind uwtable
define internal void @storebytes256(ptr noundef %0, <4 x i64> noundef %1, i32 noundef %2) #3 {
  %4 = alloca ptr, align 8
  %5 = alloca <4 x i64>, align 32
  %6 = alloca i32, align 4
  store ptr %0, ptr %4, align 8
  store <4 x i64> %1, ptr %5, align 32
  store i32 %2, ptr %6, align 4
  %7 = load ptr, ptr %4, align 8
  %8 = load i32, ptr %6, align 4
  %9 = zext i32 %8 to i64
  call void @llvm.memcpy.p0.p0.i64(ptr align 1 %7, ptr align 32 %5, i64 %9, i1 false)
  ret void
}

; Function Attrs: alwaysinline nounwind uwtable
define internal i32 @diff256(<4 x i64> noundef %0, <4 x i64> noundef %1) #3 {
  %3 = alloca <4 x i64>, align 32
  %4 = alloca <4 x i64>, align 32
  store <4 x i64> %0, ptr %3, align 32
  store <4 x i64> %1, ptr %4, align 32
  %5 = load <4 x i64>, ptr %3, align 32
  %6 = load <4 x i64>, ptr %4, align 32
  %7 = call <4 x i64> @_mm256_cmpeq_epi8(<4 x i64> noundef %5, <4 x i64> noundef %6)
  %8 = call i32 @_mm256_movemask_epi8(<4 x i64> noundef %7)
  %9 = xor i32 %8, -1
  %10 = icmp ne i32 %9, 0
  %11 = xor i1 %10, true
  %12 = xor i1 %11, true
  %13 = zext i1 %12 to i32
  ret i32 %13
}

; Function Attrs: alwaysinline nounwind uwtable
define internal <4 x i64> @zeroes256() #3 {
  %1 = call <4 x i64> @_mm256_setzero_si256()
  ret <4 x i64> %1
}

; Function Attrs: alwaysinline nounwind uwtable
define internal <4 x i64> @load256(ptr noundef %0) #3 {
  %2 = alloca ptr, align 8
  store ptr %0, ptr %2, align 8
  %3 = load ptr, ptr %2, align 8
  %4 = call <4 x i64> @_mm256_load_si256(ptr noundef %3)
  ret <4 x i64> %4
}

; Function Attrs: alwaysinline nounwind uwtable
define internal ptr @getRepeatInfo(ptr noundef %0) #2 {
  %2 = alloca ptr, align 8
  %3 = alloca ptr, align 8
  store ptr %0, ptr %2, align 8
  call void @llvm.lifetime.start.p0(i64 8, ptr %3) #14
  %4 = load ptr, ptr %2, align 8
  %5 = getelementptr inbounds nuw i8, ptr %4, i64 24
  store ptr %5, ptr %3, align 8
  %6 = load ptr, ptr %3, align 8
  call void @llvm.lifetime.end.p0(i64 8, ptr %3) #14
  ret ptr %6
}

; Function Attrs: alwaysinline nounwind uwtable
define internal ptr @getNfaRepeatInfo256(ptr noundef %0, i32 noundef %1) #2 {
  %3 = alloca ptr, align 8
  %4 = alloca i32, align 4
  %5 = alloca ptr, align 8
  %6 = alloca ptr, align 8
  %7 = alloca ptr, align 8
  store ptr %0, ptr %3, align 8
  store i32 %1, ptr %4, align 4
  call void @llvm.lifetime.start.p0(i64 8, ptr %5) #14
  %8 = load ptr, ptr %3, align 8
  store ptr %8, ptr %5, align 8
  call void @llvm.lifetime.start.p0(i64 8, ptr %6) #14
  %9 = load ptr, ptr %5, align 8
  %10 = load ptr, ptr %3, align 8
  %11 = getelementptr inbounds nuw %struct.LimExNFA256, ptr %10, i32 0, i32 13
  %12 = load i32, ptr %11, align 16
  %13 = zext i32 %12 to i64
  %14 = getelementptr inbounds nuw i8, ptr %9, i64 %13
  store ptr %14, ptr %6, align 8
  call void @llvm.lifetime.start.p0(i64 8, ptr %7) #14
  %15 = load ptr, ptr %5, align 8
  %16 = load ptr, ptr %6, align 8
  %17 = load i32, ptr %4, align 4
  %18 = zext i32 %17 to i64
  %19 = getelementptr inbounds nuw i32, ptr %16, i64 %18
  %20 = load i32, ptr %19, align 4
  %21 = zext i32 %20 to i64
  %22 = getelementptr inbounds nuw i8, ptr %15, i64 %21
  store ptr %22, ptr %7, align 8
  %23 = load ptr, ptr %7, align 8
  call void @llvm.lifetime.end.p0(i64 8, ptr %7) #14
  call void @llvm.lifetime.end.p0(i64 8, ptr %6) #14
  call void @llvm.lifetime.end.p0(i64 8, ptr %5) #14
  ret ptr %23
}

; Function Attrs: alwaysinline nounwind uwtable
define internal void @moNfaCompressState256(ptr noundef %0, ptr noundef %1, ptr noundef %2, i8 noundef zeroext %3) #3 {
  %5 = alloca ptr, align 8
  %6 = alloca ptr, align 8
  %7 = alloca ptr, align 8
  %8 = alloca i8, align 1
  %9 = alloca <4 x i64>, align 32
  %10 = alloca <4 x i64>, align 32
  %11 = alloca <4 x i64>, align 32
  %12 = alloca i32, align 4
  %13 = alloca <4 x i64>, align 32
  store ptr %0, ptr %5, align 8
  store ptr %1, ptr %6, align 8
  store ptr %2, ptr %7, align 8
  store i8 %3, ptr %8, align 1
  call void @llvm.lifetime.start.p0(i64 32, ptr %9) #14
  %14 = load ptr, ptr %7, align 8
  %15 = load <4 x i64>, ptr %14, align 32
  store <4 x i64> %15, ptr %9, align 32
  br label %16

16:                                               ; preds = %4
  br label %17

17:                                               ; preds = %16
  br label %18

18:                                               ; preds = %17
  %19 = load ptr, ptr %5, align 8
  %20 = getelementptr inbounds nuw %struct.LimExNFA256, ptr %19, i32 0, i32 19
  %21 = load i32, ptr %20, align 8
  %22 = and i32 %21, 1
  %23 = icmp ne i32 %22, 0
  br i1 %23, label %33, label %24

24:                                               ; preds = %18
  br label %25

25:                                               ; preds = %24
  br label %26

26:                                               ; preds = %25
  br label %27

27:                                               ; preds = %26
  %28 = load ptr, ptr %6, align 8
  %29 = load <4 x i64>, ptr %9, align 32
  %30 = load ptr, ptr %5, align 8
  %31 = getelementptr inbounds nuw %struct.LimExNFA256, ptr %30, i32 0, i32 18
  %32 = load i32, ptr %31, align 4
  call void @storebytes256(ptr noundef %28, <4 x i64> noundef %29, i32 noundef %32)
  br label %86

33:                                               ; preds = %18
  br label %34

34:                                               ; preds = %33
  br label %35

35:                                               ; preds = %34
  br label %36

36:                                               ; preds = %35
  call void @llvm.lifetime.start.p0(i64 32, ptr %10) #14
  %37 = load ptr, ptr %5, align 8
  %38 = load i8, ptr %8, align 1
  %39 = call <4 x i64> @moNfaReachMask256(ptr noundef %37, i8 noundef zeroext %38)
  store <4 x i64> %39, ptr %10, align 32
  %40 = load ptr, ptr %5, align 8
  %41 = getelementptr inbounds nuw %struct.LimExNFA256, ptr %40, i32 0, i32 19
  %42 = load i32, ptr %41, align 8
  %43 = and i32 %42, 2
  %44 = icmp ne i32 %43, 0
  br i1 %44, label %45, label %76

45:                                               ; preds = %36
  call void @llvm.lifetime.start.p0(i64 32, ptr %11) #14
  %46 = load ptr, ptr %5, align 8
  %47 = getelementptr inbounds nuw %struct.LimExNFA256, ptr %46, i32 0, i32 28
  %48 = call <4 x i64> @load256(ptr noundef %47)
  %49 = load <4 x i64>, ptr %9, align 32
  %50 = call <4 x i64> @and256(<4 x i64> noundef %48, <4 x i64> noundef %49)
  store <4 x i64> %50, ptr %11, align 32
  %51 = load <4 x i64>, ptr %11, align 32
  %52 = call i32 @isnonzero256(<4 x i64> noundef %51)
  %53 = icmp ne i32 %52, 0
  br i1 %53, label %63, label %54

54:                                               ; preds = %45
  br label %55

55:                                               ; preds = %54
  br label %56

56:                                               ; preds = %55
  br label %57

57:                                               ; preds = %56
  %58 = load ptr, ptr %6, align 8
  %59 = load ptr, ptr %5, align 8
  %60 = getelementptr inbounds nuw %struct.LimExNFA256, ptr %59, i32 0, i32 18
  %61 = load i32, ptr %60, align 4
  %62 = zext i32 %61 to i64
  call void @llvm.memset.p0.i64(ptr align 1 %58, i8 0, i64 %62, i1 false)
  store i32 1, ptr %12, align 4
  br label %73

63:                                               ; preds = %45
  call void @llvm.lifetime.start.p0(i64 32, ptr %13) #14
  %64 = load ptr, ptr %5, align 8
  %65 = getelementptr inbounds nuw %struct.LimExNFA256, ptr %64, i32 0, i32 28
  %66 = call <4 x i64> @load256(ptr noundef %65)
  %67 = load <4 x i64>, ptr %10, align 32
  %68 = call <4 x i64> @and256(<4 x i64> noundef %66, <4 x i64> noundef %67)
  store <4 x i64> %68, ptr %13, align 32
  %69 = load ptr, ptr %6, align 8
  %70 = load ptr, ptr %5, align 8
  %71 = getelementptr inbounds nuw %struct.LimExNFA256, ptr %70, i32 0, i32 18
  %72 = load i32, ptr %71, align 4
  call void @storecompressed256(ptr noundef %69, ptr noundef %11, ptr noundef %13, i32 noundef %72)
  call void @llvm.lifetime.end.p0(i64 32, ptr %13) #14
  store i32 0, ptr %12, align 4
  br label %73

73:                                               ; preds = %63, %57
  call void @llvm.lifetime.end.p0(i64 32, ptr %11) #14
  %74 = load i32, ptr %12, align 4
  switch i32 %74, label %83 [
    i32 0, label %75
  ]

75:                                               ; preds = %73
  br label %82

76:                                               ; preds = %36
  %77 = load ptr, ptr %6, align 8
  %78 = load ptr, ptr %7, align 8
  %79 = load ptr, ptr %5, align 8
  %80 = getelementptr inbounds nuw %struct.LimExNFA256, ptr %79, i32 0, i32 18
  %81 = load i32, ptr %80, align 4
  call void @storecompressed256(ptr noundef %77, ptr noundef %78, ptr noundef %10, i32 noundef %81)
  br label %82

82:                                               ; preds = %76, %75
  store i32 0, ptr %12, align 4
  br label %83

83:                                               ; preds = %82, %73
  call void @llvm.lifetime.end.p0(i64 32, ptr %10) #14
  %84 = load i32, ptr %12, align 4
  switch i32 %84, label %87 [
    i32 0, label %85
  ]

85:                                               ; preds = %83
  br label %86

86:                                               ; preds = %85, %27
  store i32 0, ptr %12, align 4
  br label %87

87:                                               ; preds = %86, %83
  call void @llvm.lifetime.end.p0(i64 32, ptr %9) #14
  %88 = load i32, ptr %12, align 4
  switch i32 %88, label %90 [
    i32 0, label %89
    i32 1, label %89
  ]

89:                                               ; preds = %87, %87
  ret void

90:                                               ; preds = %87
  unreachable
}

; Function Attrs: alwaysinline nounwind uwtable
define internal i32 @isnonzero256(<4 x i64> noundef %0) #3 {
  %2 = alloca <4 x i64>, align 32
  store <4 x i64> %0, ptr %2, align 32
  %3 = load <4 x i64>, ptr %2, align 32
  %4 = call <4 x i64> @zeroes256()
  %5 = call i32 @diff256(<4 x i64> noundef %3, <4 x i64> noundef %4)
  %6 = icmp ne i32 %5, 0
  %7 = xor i1 %6, true
  %8 = xor i1 %7, true
  %9 = zext i1 %8 to i32
  ret i32 %9
}

; Function Attrs: alwaysinline nounwind uwtable
define internal <4 x i64> @moNfaInitial256(ptr noundef %0, i8 noundef signext %1) #3 {
  %3 = alloca ptr, align 8
  %4 = alloca i8, align 1
  store ptr %0, ptr %3, align 8
  store i8 %1, ptr %4, align 1
  %5 = load i8, ptr %4, align 1
  %6 = sext i8 %5 to i32
  %7 = icmp ne i32 %6, 0
  br i1 %7, label %8, label %11

8:                                                ; preds = %2
  %9 = load ptr, ptr %3, align 8
  %10 = getelementptr inbounds nuw %struct.LimExNFA256, ptr %9, i32 0, i32 21
  br label %14

11:                                               ; preds = %2
  %12 = load ptr, ptr %3, align 8
  %13 = getelementptr inbounds nuw %struct.LimExNFA256, ptr %12, i32 0, i32 20
  br label %14

14:                                               ; preds = %11, %8
  %15 = phi ptr [ %10, %8 ], [ %13, %11 ]
  %16 = call <4 x i64> @load256(ptr noundef %15)
  ret <4 x i64> %16
}

; Function Attrs: nounwind uwtable
define hidden signext i8 @nfaExecLimEx256_initCompressedState(ptr noundef %0, i64 noundef %1, ptr noundef %2, i8 noundef zeroext %3) #4 {
  %5 = alloca i8, align 1
  %6 = alloca ptr, align 8
  %7 = alloca i64, align 8
  %8 = alloca ptr, align 8
  %9 = alloca i8, align 1
  %10 = alloca ptr, align 8
  %11 = alloca <4 x i64>, align 32
  %12 = alloca i32, align 4
  %13 = alloca ptr, align 8
  %14 = alloca i32, align 4
  %15 = alloca ptr, align 8
  %16 = alloca ptr, align 8
  store ptr %0, ptr %6, align 8
  store i64 %1, ptr %7, align 8
  store ptr %2, ptr %8, align 8
  store i8 %3, ptr %9, align 1
  call void @llvm.lifetime.start.p0(i64 8, ptr %10) #14
  %17 = load ptr, ptr %6, align 8
  %18 = getelementptr inbounds nuw i8, ptr %17, i64 64
  store ptr %18, ptr %10, align 8
  call void @llvm.lifetime.start.p0(i64 32, ptr %11) #14
  %19 = load ptr, ptr %10, align 8
  %20 = load i64, ptr %7, align 8
  %21 = icmp ne i64 %20, 0
  %22 = xor i1 %21, true
  %23 = xor i1 %22, true
  %24 = zext i1 %23 to i32
  %25 = trunc i32 %24 to i8
  %26 = call <4 x i64> @moNfaInitial256(ptr noundef %19, i8 noundef signext %25)
  store <4 x i64> %26, ptr %11, align 32
  %27 = load <4 x i64>, ptr %11, align 32
  %28 = call i32 @isnonzero256(<4 x i64> noundef %27)
  %29 = icmp ne i32 %28, 0
  br i1 %29, label %34, label %30

30:                                               ; preds = %4
  br label %31

31:                                               ; preds = %30
  br label %32

32:                                               ; preds = %31
  br label %33

33:                                               ; preds = %32
  store i8 0, ptr %5, align 1
  store i32 1, ptr %12, align 4
  br label %71

34:                                               ; preds = %4
  %35 = load ptr, ptr %10, align 8
  %36 = load ptr, ptr %8, align 8
  %37 = load i8, ptr %9, align 1
  call void @moNfaCompressState256(ptr noundef %35, ptr noundef %36, ptr noundef %11, i8 noundef zeroext %37)
  call void @llvm.lifetime.start.p0(i64 8, ptr %13) #14
  %38 = load ptr, ptr %8, align 8
  %39 = load ptr, ptr %10, align 8
  %40 = getelementptr inbounds nuw %struct.LimExNFA256, ptr %39, i32 0, i32 18
  %41 = load i32, ptr %40, align 4
  %42 = zext i32 %41 to i64
  %43 = getelementptr inbounds nuw i8, ptr %38, i64 %42
  store ptr %43, ptr %13, align 8
  call void @llvm.lifetime.start.p0(i64 4, ptr %14) #14
  store i32 0, ptr %14, align 4
  br label %44

44:                                               ; preds = %67, %34
  %45 = load i32, ptr %14, align 4
  %46 = load ptr, ptr %10, align 8
  %47 = getelementptr inbounds nuw %struct.LimExNFA256, ptr %46, i32 0, i32 12
  %48 = load i32, ptr %47, align 4
  %49 = icmp ult i32 %45, %48
  br i1 %49, label %51, label %50

50:                                               ; preds = %44
  store i32 4, ptr %12, align 4
  call void @llvm.lifetime.end.p0(i64 4, ptr %14) #14
  br label %70

51:                                               ; preds = %44
  call void @llvm.lifetime.start.p0(i64 8, ptr %15) #14
  %52 = load ptr, ptr %10, align 8
  %53 = load i32, ptr %14, align 4
  %54 = call ptr @getNfaRepeatInfo256(ptr noundef %52, i32 noundef %53)
  store ptr %54, ptr %15, align 8
  call void @llvm.lifetime.start.p0(i64 8, ptr %16) #14
  %55 = load ptr, ptr %15, align 8
  %56 = call ptr @getRepeatInfo(ptr noundef %55)
  store ptr %56, ptr %16, align 8
  %57 = load ptr, ptr %13, align 8
  %58 = load ptr, ptr %15, align 8
  %59 = getelementptr inbounds nuw %struct.NFARepeatInfo, ptr %58, i32 0, i32 2
  %60 = load i32, ptr %59, align 4
  %61 = zext i32 %60 to i64
  %62 = getelementptr inbounds nuw i8, ptr %57, i64 %61
  %63 = load ptr, ptr %16, align 8
  %64 = getelementptr inbounds nuw %struct.RepeatInfo, ptr %63, i32 0, i32 4
  %65 = load i32, ptr %64, align 4
  %66 = zext i32 %65 to i64
  call void @llvm.memset.p0.i64(ptr align 1 %62, i8 0, i64 %66, i1 false)
  call void @llvm.lifetime.end.p0(i64 8, ptr %16) #14
  call void @llvm.lifetime.end.p0(i64 8, ptr %15) #14
  br label %67

67:                                               ; preds = %51
  %68 = load i32, ptr %14, align 4
  %69 = add i32 %68, 1
  store i32 %69, ptr %14, align 4
  br label %44

70:                                               ; preds = %50
  store i8 1, ptr %5, align 1
  store i32 1, ptr %12, align 4
  call void @llvm.lifetime.end.p0(i64 8, ptr %13) #14
  br label %71

71:                                               ; preds = %70, %33
  call void @llvm.lifetime.end.p0(i64 32, ptr %11) #14
  call void @llvm.lifetime.end.p0(i64 8, ptr %10) #14
  %72 = load i8, ptr %5, align 1
  ret i8 %72
}