; Function Attrs: nounwind uwtable
define hidden signext range(i8 0, 2) i8 @nfaExecLimEx256_initCompressedState(ptr noundef readonly captures(none) %0, i64 noundef %1, ptr noundef %2, i8 noundef zeroext %3) local_unnamed_addr #0 {
  %5 = alloca <4 x i64>, align 32
  %6 = alloca <4 x i64>, align 32
  %7 = alloca <4 x i64>, align 32
  %8 = alloca <4 x i64>, align 32
  %9 = alloca <4 x i64>, align 32
  %10 = getelementptr inbounds nuw i8, ptr %0, i64 64
  call void @llvm.lifetime.start.p0(i64 32, ptr nonnull %9) #10
  %.not19 = icmp eq i64 %1, 0
  %.v.i = select i1 %.not19, i64 352, i64 384
  %11 = getelementptr inbounds nuw i8, ptr %10, i64 %.v.i
  %12 = load <4 x i64>, ptr %11, align 32
  store <4 x i64> %12, ptr %9, align 32
  %13 = bitcast <4 x i64> %12 to <32 x i8>
  %14 = icmp ne <32 x i8> %13, zeroinitializer
  %15 = bitcast <32 x i1> %14 to i32
  %.not20 = icmp eq i32 %15, 0
  br i1 %.not20, label %.loopexit, label %16

16:                                               ; preds = %4
  %17 = getelementptr inbounds nuw i8, ptr %0, i64 392
  %18 = load i32, ptr %17, align 8
  %19 = and i32 %18, 1
  %.not.i = icmp eq i32 %19, 0
  br i1 %.not.i, label %20, label %24

20:                                               ; preds = %16
  %21 = getelementptr inbounds nuw i8, ptr %0, i64 388
  %22 = load i32, ptr %21, align 4
  call void @llvm.lifetime.start.p0(i64 32, ptr nonnull %5)
  store <4 x i64> %12, ptr %5, align 32
  %23 = zext i32 %22 to i64
  call void @llvm.memcpy.p0.p0.i64(ptr align 1 %2, ptr nonnull align 32 %5, i64 %23, i1 false)
  call void @llvm.lifetime.end.p0(i64 32, ptr nonnull %5)
  br label %moNfaCompressState256.exit

24:                                               ; preds = %16
  call void @llvm.lifetime.start.p0(i64 32, ptr nonnull %6) #10
  %25 = getelementptr inbounds nuw i8, ptr %0, i64 1280
  %26 = zext i8 %3 to i64
  %27 = getelementptr inbounds nuw [256 x i8], ptr %10, i64 0, i64 %26
  %28 = load i8, ptr %27, align 1
  %29 = zext i8 %28 to i64
  %30 = getelementptr inbounds nuw <4 x i64>, ptr %25, i64 %29
  %31 = load <4 x i64>, ptr %30, align 32
  store <4 x i64> %31, ptr %6, align 32
  %32 = and i32 %18, 2
  %.not20.i = icmp eq i32 %32, 0
  br i1 %.not20.i, label %44, label %33

33:                                               ; preds = %24
  call void @llvm.lifetime.start.p0(i64 32, ptr nonnull %7) #10
  %34 = getelementptr inbounds nuw i8, ptr %0, i64 672
  %35 = load <4 x i64>, ptr %34, align 32
  %36 = and <4 x i64> %35, %12
  store <4 x i64> %36, ptr %7, align 32
  %37 = bitcast <4 x i64> %36 to <32 x i8>
  %38 = icmp ne <32 x i8> %37, zeroinitializer
  %39 = bitcast <32 x i1> %38 to i32
  %.not = icmp eq i32 %39, 0
  br i1 %.not, label %47, label %40

40:                                               ; preds = %33
  call void @llvm.lifetime.start.p0(i64 32, ptr nonnull %8) #10
  %41 = and <4 x i64> %35, %31
  store <4 x i64> %41, ptr %8, align 32
  %42 = getelementptr inbounds nuw i8, ptr %0, i64 388
  %43 = load i32, ptr %42, align 4
  call void @storecompressed256(ptr noundef %2, ptr noundef nonnull %7, ptr noundef nonnull %8, i32 noundef %43) #10
  call void @llvm.lifetime.end.p0(i64 32, ptr nonnull %8) #10
  call void @llvm.lifetime.end.p0(i64 32, ptr nonnull %7) #10
  br label %.critedge.i

44:                                               ; preds = %24
  %45 = getelementptr inbounds nuw i8, ptr %0, i64 388
  %46 = load i32, ptr %45, align 4
  call void @storecompressed256(ptr noundef %2, ptr noundef nonnull %9, ptr noundef nonnull %6, i32 noundef %46) #10
  br label %.critedge.i

.critedge.i:                                      ; preds = %40, %44
  call void @llvm.lifetime.end.p0(i64 32, ptr nonnull %6) #10
  br label %moNfaCompressState256.exit

47:                                               ; preds = %33
  %48 = getelementptr inbounds nuw i8, ptr %0, i64 388
  %49 = load i32, ptr %48, align 4
  %50 = zext i32 %49 to i64
  tail call void @llvm.memset.p0.i64(ptr align 1 %2, i8 0, i64 %50, i1 false)
  call void @llvm.lifetime.end.p0(i64 32, ptr nonnull %7) #10
  call void @llvm.lifetime.end.p0(i64 32, ptr nonnull %6) #10
  br label %moNfaCompressState256.exit

moNfaCompressState256.exit:                       ; preds = %20, %.critedge.i, %47
  %51 = getelementptr inbounds nuw i8, ptr %0, i64 388
  %52 = load i32, ptr %51, align 4
  %53 = zext i32 %52 to i64
  %54 = getelementptr inbounds nuw i8, ptr %2, i64 %53
  %55 = getelementptr inbounds nuw i8, ptr %0, i64 364
  %56 = load i32, ptr %55, align 4
  %.not22 = icmp eq i32 %56, 0
  br i1 %.not22, label %.loopexit, label %.lr.ph

.lr.ph:                                           ; preds = %moNfaCompressState256.exit
  %57 = getelementptr inbounds nuw i8, ptr %0, i64 368
  br label %58

58:                                               ; preds = %.lr.ph, %58
  %indvars.iv = phi i64 [ 0, %.lr.ph ], [ %indvars.iv.next, %58 ]
  %59 = load i32, ptr %57, align 16
  %60 = zext i32 %59 to i64
  %61 = getelementptr inbounds nuw i8, ptr %10, i64 %60
  %62 = getelementptr inbounds nuw i32, ptr %61, i64 %indvars.iv
  %63 = load i32, ptr %62, align 4
  %64 = zext i32 %63 to i64
  %65 = getelementptr inbounds nuw i8, ptr %10, i64 %64
  %66 = getelementptr inbounds nuw i8, ptr %65, i64 8
  %67 = load i32, ptr %66, align 4
  %68 = zext i32 %67 to i64
  %69 = getelementptr inbounds nuw i8, ptr %54, i64 %68
  %70 = getelementptr inbounds nuw i8, ptr %65, i64 40
  %71 = load i32, ptr %70, align 4
  %72 = zext i32 %71 to i64
  call void @llvm.memset.p0.i64(ptr align 1 %69, i8 0, i64 %72, i1 false)
  %indvars.iv.next = add nuw nsw i64 %indvars.iv, 1
  %73 = load i32, ptr %55, align 4
  %74 = zext i32 %73 to i64
  %75 = icmp samesign ult i64 %indvars.iv.next, %74
  br i1 %75, label %58, label %.loopexit

.loopexit:                                        ; preds = %58, %moNfaCompressState256.exit, %4
  %.0 = phi i8 [ 0, %4 ], [ 1, %moNfaCompressState256.exit ], [ 1, %58 ]
  call void @llvm.lifetime.end.p0(i64 32, ptr nonnull %9) #10
  ret i8 %.0
}